; Function Attrs: mustprogress uwtable
define noundef zeroext i1 @_ZN6google8protobuf25EncodedDescriptorDatabase3AddEPKvi(ptr nocapture noundef nonnull readonly align 8 dereferenceable(40) %this, ptr noundef %encoded_file_descriptor, i32 noundef %size) local_unnamed_addr #6 align 2 personality ptr @__gxx_personality_v0 {
entry:
  %file = alloca %"class.google::protobuf::FileDescriptorProto", align 8
  %ref.tmp7 = alloca %"class.absl::lts_20230802::log_internal::LogMessage", align 8
  call void @_ZN6google8protobuf19FileDescriptorProtoC2EPNS0_5ArenaE(ptr noundef nonnull align 8 dereferenceable(224) %file, ptr noundef null)
  %call = invoke noundef zeroext i1 @_ZN6google8protobuf11MessageLite14ParseFromArrayEPKvi(ptr noundef nonnull align 8 dereferenceable(16) %file, ptr noundef %encoded_file_descriptor, i32 noundef %size)
          to label %invoke.cont unwind label %lpad

invoke.cont:                                      ; preds = %entry
  br i1 %call, label %invoke.cont3, label %if.else

invoke.cont3:                                     ; preds = %invoke.cont
  %index_ = getelementptr inbounds i8, ptr %this, i64 8
  %0 = load ptr, ptr %index_, align 8
  %call6 = invoke noundef zeroext i1 @_ZN6google8protobuf25EncodedDescriptorDatabase15DescriptorIndex7AddFileINS0_19FileDescriptorProtoEEEbRKT_St4pairIPKviE(ptr noundef nonnull align 8 dereferenceable(192) %0, ptr noundef nonnull align 8 dereferenceable(224) %file, ptr %encoded_file_descriptor, i32 %size)
          to label %cleanup unwind label %lpad

lpad:                                             ; preds = %if.else, %invoke.cont3, %entry
  %1 = landingpad { ptr, i32 }
          cleanup
  br label %ehcleanup

if.else:                                          ; preds = %invoke.cont
  invoke void @_ZN4absl12lts_2023080212log_internal10LogMessageC1EPKciNS2_8ErrorTagE(ptr noundef nonnull align 8 dereferenceable(16) %ref.tmp7, ptr noundef nonnull @.str, i32 noundef 550) #26
          to label %invoke.cont9 unwind label %lpad

invoke.cont9:                                     ; preds = %if.else
  invoke void @_ZN4absl12lts_2023080212log_internal10LogMessage19CopyToEncodedBufferILNS2_10StringTypeE0EEEvSt17basic_string_viewIcSt11char_traitsIcEE(ptr noundef nonnull align 8 dereferenceable(16) %ref.tmp7, i64 72, ptr nonnull @.str.1)
          to label %invoke.cont13 unwind label %lpad10

invoke.cont13:                                    ; preds = %invoke.cont9
  call void @_ZN4absl12lts_2023080212log_internal10LogMessageD1Ev(ptr noundef nonnull align 8 dereferenceable(16) %ref.tmp7) #27
  br label %cleanup

lpad10:                                           ; preds = %invoke.cont9
  %2 = landingpad { ptr, i32 }
          cleanup
  call void @_ZN4absl12lts_2023080212log_internal10LogMessageD1Ev(ptr noundef nonnull align 8 dereferenceable(16) %ref.tmp7) #27
  br label %ehcleanup

cleanup:                                          ; preds = %invoke.cont3, %invoke.cont13
  %retval.0 = phi i1 [ false, %invoke.cont13 ], [ %call6, %invoke.cont3 ]
  call void @_ZN6google8protobuf19FileDescriptorProtoD1Ev(ptr noundef nonnull align 8 dereferenceable(224) %file) #28
  ret i1 %retval.0

ehcleanup:                                        ; preds = %lpad10, %lpad
  %.pn = phi { ptr, i32 } [ %1, %lpad ], [ %2, %lpad10 ]
  call void @_ZN6google8protobuf19FileDescriptorProtoD1Ev(ptr noundef nonnull align 8 dereferenceable(224) %file) #28
  resume { ptr, i32 } %.pn
}